target datalayout = "e-m:e-p270:32:32-p271:32:32-p272:64:64-i64:64-i128:128-f80:128-n8:16:32:64-S128"
target triple = "x86_64-pc-linux-gnu"

%"class.sat::watched" = type <{ i64, i32, [4 x i8] }>
%class.vector = type { ptr }

; Function Attrs: mustprogress nounwind uwtable
define linkonce_odr hidden noundef i32 @_ZNK6vectorIN3sat7watchedELb1EjE4sizeEv(ptr noundef nonnull align 8 dereferenceable(8) %0) #6 comdat align 2 {
  %2 = alloca i32, align 4
  %3 = alloca ptr, align 8
  store ptr %0, ptr %3, align 8, !tbaa !3
  %4 = load ptr, ptr %3, align 8
  %5 = getelementptr inbounds nuw %class.vector, ptr %4, i32 0, i32 0
  %6 = load ptr, ptr %5, align 8, !tbaa !18
  %7 = icmp eq ptr %6, null
  br i1 %7, label %8, label %9

8:                                                ; preds = %1
  store i32 0, ptr %2, align 4
  br label %14

9:                                                ; preds = %1
  %10 = getelementptr inbounds nuw %class.vector, ptr %4, i32 0, i32 0
  %11 = load ptr, ptr %10, align 8, !tbaa !18
  %12 = getelementptr inbounds i32, ptr %11, i64 -1
  %13 = load i32, ptr %12, align 4, !tbaa !13
  store i32 %13, ptr %2, align 4
  br label %14

14:                                               ; preds = %9, %8
  %15 = load i32, ptr %2, align 4
  ret i32 %15
}

; Function Attrs: mustprogress uwtable
define linkonce_odr hidden void @_ZN6vectorIN3sat7watchedELb1EjE7set_endEPS1_(ptr noundef nonnull align 8 dereferenceable(8) %0, ptr noundef %1) #4 comdat align 2 {
  %3 = alloca ptr, align 8
  %4 = alloca ptr, align 8
  %5 = alloca i32, align 4
  %6 = alloca ptr, align 8
  store ptr %0, ptr %3, align 8, !tbaa !3
  store ptr %1, ptr %4, align 8, !tbaa !10
  %7 = load ptr, ptr %3, align 8
  %8 = getelementptr inbounds nuw %class.vector, ptr %7, i32 0, i32 0
  %9 = load ptr, ptr %8, align 8, !tbaa !18
  %10 = icmp ne ptr %9, null
  br i1 %10, label %11, label %34

11:                                               ; preds = %2
  call void @llvm.lifetime.start.p0(i64 4, ptr %5) #3
  %12 = load ptr, ptr %4, align 8, !tbaa !10
  %13 = getelementptr inbounds nuw %class.vector, ptr %7, i32 0, i32 0
  %14 = load ptr, ptr %13, align 8, !tbaa !18
  %15 = ptrtoint ptr %12 to i64
  %16 = ptrtoint ptr %14 to i64
  %17 = sub i64 %15, %16
  %18 = sdiv exact i64 %17, 16
  %19 = trunc i64 %18 to i32
  store i32 %19, ptr %5, align 4, !tbaa !13
  call void @llvm.lifetime.start.p0(i64 8, ptr %6) #3
  %20 = call noundef ptr @_ZN6vectorIN3sat7watchedELb1EjE3endEv(ptr noundef nonnull align 8 dereferenceable(8) %7)
  store ptr %20, ptr %6, align 8, !tbaa !10
  br label %21

21:                                               ; preds = %26, %11
  %22 = load ptr, ptr %4, align 8, !tbaa !10
  %23 = load ptr, ptr %6, align 8, !tbaa !10
  %24 = icmp ne ptr %22, %23
  br i1 %24, label %25, label %29

25:                                               ; preds = %21
  br label %26

26:                                               ; preds = %25
  %27 = load ptr, ptr %4, align 8, !tbaa !10
  %28 = getelementptr inbounds nuw %"class.sat::watched", ptr %27, i32 1
  store ptr %28, ptr %4, align 8, !tbaa !10
  br label %21, !llvm.loop !22

29:                                               ; preds = %21
  call void @llvm.lifetime.end.p0(i64 8, ptr %6) #3
  %30 = load i32, ptr %5, align 4, !tbaa !13
  %31 = getelementptr inbounds nuw %class.vector, ptr %7, i32 0, i32 0
  %32 = load ptr, ptr %31, align 8, !tbaa !18
  %33 = getelementptr inbounds i32, ptr %32, i64 -1
  store i32 %30, ptr %33, align 4, !tbaa !13
  call void @llvm.lifetime.end.p0(i64 4, ptr %5) #3
  br label %35

34:                                               ; preds = %2
  br label %35

35:                                               ; preds = %34, %29
  ret void
}

; Function Attrs: mustprogress uwtable
define linkonce_odr hidden noundef ptr @_ZN6vectorIN3sat7watchedELb1EjE3endEv(ptr noundef nonnull align 8 dereferenceable(8) %0) #4 comdat align 2 {
  %2 = alloca ptr, align 8
  store ptr %0, ptr %2, align 8, !tbaa !3
  %3 = load ptr, ptr %2, align 8
  %4 = getelementptr inbounds nuw %class.vector, ptr %3, i32 0, i32 0
  %5 = load ptr, ptr %4, align 8, !tbaa !18
  %6 = call noundef i32 @_ZNK6vectorIN3sat7watchedELb1EjE4sizeEv(ptr noundef nonnull align 8 dereferenceable(8) %3)
  %7 = zext i32 %6 to i64
  %8 = getelementptr inbounds nuw %"class.sat::watched", ptr %5, i64 %7
  ret ptr %8
}

; Function Attrs: mustprogress uwtable
define hidden void @_ZN3sat16conflict_cleanupEPNS_7watchedES1_R6vectorIS0_Lb1EjE(ptr noundef %0, ptr noundef %1, ptr noundef nonnull align 8 dereferenceable(8) %2) #4 {
  %4 = alloca ptr, align 8
  %5 = alloca ptr, align 8
  %6 = alloca ptr, align 8
  %7 = alloca ptr, align 8
  store ptr %0, ptr %4, align 8, !tbaa !10
  store ptr %1, ptr %5, align 8, !tbaa !10
  store ptr %2, ptr %6, align 8, !tbaa !3
  call void @llvm.lifetime.start.p0(i64 8, ptr %7) #3
  %8 = load ptr, ptr %6, align 8, !tbaa !3
  %9 = call noundef ptr @_ZN6vectorIN3sat7watchedELb1EjE3endEv(ptr noundef nonnull align 8 dereferenceable(8) %8)
  store ptr %9, ptr %7, align 8, !tbaa !10
  br label %10

10:                                               ; preds = %17, %3
  %11 = load ptr, ptr %4, align 8, !tbaa !10
  %12 = load ptr, ptr %7, align 8, !tbaa !10
  %13 = icmp ne ptr %11, %12
  br i1 %13, label %14, label %22

14:                                               ; preds = %10
  %15 = load ptr, ptr %4, align 8, !tbaa !10
  %16 = load ptr, ptr %5, align 8, !tbaa !10
  call void @llvm.memcpy.p0.p0.i64(ptr align 8 %16, ptr align 8 %15, i64 12, i1 false), !tbaa.struct !12
  br label %17

17:                                               ; preds = %14
  %18 = load ptr, ptr %4, align 8, !tbaa !10
  %19 = getelementptr inbounds nuw %"class.sat::watched", ptr %18, i32 1
  store ptr %19, ptr %4, align 8, !tbaa !10
  %20 = load ptr, ptr %5, align 8, !tbaa !10
  %21 = getelementptr inbounds nuw %"class.sat::watched", ptr %20, i32 1
  store ptr %21, ptr %5, align 8, !tbaa !10
  br label %10, !llvm.loop !32

22:                                               ; preds = %10
  %23 = load ptr, ptr %6, align 8, !tbaa !3
  %24 = load ptr, ptr %5, align 8, !tbaa !10
  call void @_ZN6vectorIN3sat7watchedELb1EjE7set_endEPS1_(ptr noundef nonnull align 8 dereferenceable(8) %23, ptr noundef %24)
  call void @llvm.lifetime.end.p0(i64 8, ptr %7) #3
  ret void
}