; Function Attrs: mustprogress nofree norecurse nosync nounwind memory(readwrite, inaccessiblemem: none) uwtable
define hidden void @_ZN3sat16conflict_cleanupEPNS_7watchedES1_R6vectorIS0_Lb1EjE(ptr noundef readonly captures(address) %0, ptr noundef %1, ptr noundef nonnull readonly align 8 captures(none) dereferenceable(8) %2) local_unnamed_addr #3 {
  %4 = load ptr, ptr %2, align 8, !tbaa !3
  %5 = icmp eq ptr %4, null
  br i1 %5, label %_ZN6vectorIN3sat7watchedELb1EjE3endEv.exit, label %6

6:                                                ; preds = %3
  %7 = getelementptr inbounds i8, ptr %4, i64 -4
  %8 = load i32, ptr %7, align 4, !tbaa !9
  %9 = zext i32 %8 to i64
  br label %_ZN6vectorIN3sat7watchedELb1EjE3endEv.exit

_ZN6vectorIN3sat7watchedELb1EjE3endEv.exit:       ; preds = %3, %6
  %.0.i.i = phi i64 [ %9, %6 ], [ 0, %3 ]
  %10 = getelementptr inbounds nuw %"class.sat::watched", ptr %4, i64 %.0.i.i
  %.not10 = icmp eq ptr %0, %10
  br i1 %.not10, label %._crit_edge, label %.lr.ph

.lr.ph:                                           ; preds = %_ZN6vectorIN3sat7watchedELb1EjE3endEv.exit, %.lr.ph
  %.012 = phi ptr [ %11, %.lr.ph ], [ %0, %_ZN6vectorIN3sat7watchedELb1EjE3endEv.exit ]
  %.0911 = phi ptr [ %12, %.lr.ph ], [ %1, %_ZN6vectorIN3sat7watchedELb1EjE3endEv.exit ]
  tail call void @llvm.memcpy.p0.p0.i64(ptr noundef nonnull align 8 dereferenceable(12) %.0911, ptr noundef nonnull align 8 dereferenceable(12) %.012, i64 12, i1 false), !tbaa.struct !15
  %11 = getelementptr inbounds nuw i8, ptr %.012, i64 16
  %12 = getelementptr inbounds nuw i8, ptr %.0911, i64 16
  %.not = icmp eq ptr %11, %10
  br i1 %.not, label %._crit_edge.loopexit, label %.lr.ph, !llvm.loop !21

._crit_edge.loopexit:                             ; preds = %.lr.ph
  %.pre = load ptr, ptr %2, align 8, !tbaa !3
  br label %._crit_edge

._crit_edge:                                      ; preds = %._crit_edge.loopexit, %_ZN6vectorIN3sat7watchedELb1EjE3endEv.exit
  %13 = phi ptr [ %4, %_ZN6vectorIN3sat7watchedELb1EjE3endEv.exit ], [ %.pre, %._crit_edge.loopexit ]
  %.09.lcssa = phi ptr [ %1, %_ZN6vectorIN3sat7watchedELb1EjE3endEv.exit ], [ %12, %._crit_edge.loopexit ]
  %.not.i = icmp eq ptr %13, null
  br i1 %.not.i, label %_ZN6vectorIN3sat7watchedELb1EjE7set_endEPS1_.exit, label %_ZN6vectorIN3sat7watchedELb1EjE3endEv.exit.i

_ZN6vectorIN3sat7watchedELb1EjE3endEv.exit.i:     ; preds = %._crit_edge
  %14 = ptrtoint ptr %.09.lcssa to i64
  %15 = ptrtoint ptr %13 to i64
  %16 = sub i64 %14, %15
  %17 = lshr exact i64 %16, 4
  %18 = trunc i64 %17 to i32
  %19 = getelementptr inbounds i8, ptr %13, i64 -4
  store i32 %18, ptr %19, align 4, !tbaa !9
  br label %_ZN6vectorIN3sat7watchedELb1EjE7set_endEPS1_.exit

_ZN6vectorIN3sat7watchedELb1EjE7set_endEPS1_.exit: ; preds = %._crit_edge, %_ZN6vectorIN3sat7watchedELb1EjE3endEv.exit.i
  ret void
}